target datalayout = "e-m:e-p270:32:32-p271:32:32-p272:64:64-i64:64-i128:128-f80:128-n8:16:32:64-S128"
target triple = "x86_64-pc-linux-gnu"

%struct.AVFilterContext = type { ptr, ptr, ptr, ptr, ptr, i32, ptr, ptr, i32, ptr, ptr, i32, i32, ptr, ptr, ptr, ptr, i32, ptr, i32, i32 }
%struct.TelecineContext = type { ptr, i32, ptr, i32, i64, %struct.AVRational, %struct.AVRational, i32, i32, i32, [4 x i32], [4 x i32], [5 x ptr], ptr }
%struct.AVRational = type { i32, i32 }
%struct.AVFilterLink = type { ptr, ptr, ptr, ptr, i32, i32, i32, i32, %struct.AVRational, i32, i32, i32, %struct.AVChannelLayout, %struct.AVRational, ptr, i32, %struct.AVFilterFormatsConfig, %struct.AVFilterFormatsConfig }
%struct.AVChannelLayout = type { i32, i32, %union.anon.1, ptr }
%union.anon.1 = type { i64 }
%struct.AVFilterFormatsConfig = type { ptr, ptr, ptr, ptr, ptr }
%struct.AVPixFmtDescriptor = type { ptr, i8, i8, i8, i64, [4 x %struct.AVComponentDescriptor], ptr }
%struct.AVComponentDescriptor = type { i32, i32, i32, i32, i32 }

; Function Attrs: nounwind uwtable
define internal i32 @config_input(ptr noundef %0) #1 {
  %2 = alloca i32, align 4
  %3 = alloca ptr, align 8
  %4 = alloca ptr, align 8
  %5 = alloca ptr, align 8
  %6 = alloca i32, align 4
  %7 = alloca i32, align 4
  %8 = alloca i32, align 4
  store ptr %0, ptr %3, align 8, !tbaa !41
  call void @llvm.lifetime.start.p0(i64 8, ptr %4) #11
  %9 = load ptr, ptr %3, align 8, !tbaa !41
  %10 = getelementptr inbounds nuw %struct.AVFilterLink, ptr %9, i32 0, i32 2
  %11 = load ptr, ptr %10, align 8, !tbaa !44
  %12 = getelementptr inbounds nuw %struct.AVFilterContext, ptr %11, i32 0, i32 9
  %13 = load ptr, ptr %12, align 8, !tbaa !9
  store ptr %13, ptr %4, align 8, !tbaa !22
  call void @llvm.lifetime.start.p0(i64 8, ptr %5) #11
  %14 = load ptr, ptr %3, align 8, !tbaa !41
  %15 = getelementptr inbounds nuw %struct.AVFilterLink, ptr %14, i32 0, i32 5
  %16 = load i32, ptr %15, align 4, !tbaa !74
  %17 = call ptr @av_pix_fmt_desc_get(i32 noundef %16)
  store ptr %17, ptr %5, align 8, !tbaa !75
  call void @llvm.lifetime.start.p0(i64 4, ptr %6) #11
  call void @llvm.lifetime.start.p0(i64 4, ptr %7) #11
  %18 = load ptr, ptr %3, align 8, !tbaa !41
  %19 = load ptr, ptr %3, align 8, !tbaa !41
  %20 = getelementptr inbounds nuw %struct.AVFilterLink, ptr %19, i32 0, i32 6
  %21 = load i32, ptr %20, align 8, !tbaa !77
  %22 = load ptr, ptr %3, align 8, !tbaa !41
  %23 = getelementptr inbounds nuw %struct.AVFilterLink, ptr %22, i32 0, i32 7
  %24 = load i32, ptr %23, align 4, !tbaa !78
  %25 = call ptr @ff_get_video_buffer(ptr noundef %18, i32 noundef %21, i32 noundef %24)
  %26 = load ptr, ptr %4, align 8, !tbaa !22
  %27 = getelementptr inbounds nuw %struct.TelecineContext, ptr %26, i32 0, i32 13
  store ptr %25, ptr %27, align 8, !tbaa !63
  %28 = load ptr, ptr %4, align 8, !tbaa !22
  %29 = getelementptr inbounds nuw %struct.TelecineContext, ptr %28, i32 0, i32 13
  %30 = load ptr, ptr %29, align 8, !tbaa !63
  %31 = icmp ne ptr %30, null
  br i1 %31, label %33, label %32

32:                                               ; preds = %1
  store i32 -12, ptr %2, align 4
  store i32 1, ptr %8, align 4
  br label %135

33:                                               ; preds = %1
  store i32 0, ptr %6, align 4, !tbaa !24
  br label %34

34:                                               ; preds = %63, %33
  %35 = load i32, ptr %6, align 4, !tbaa !24
  %36 = load ptr, ptr %4, align 8, !tbaa !22
  %37 = getelementptr inbounds nuw %struct.TelecineContext, ptr %36, i32 0, i32 7
  %38 = load i32, ptr %37, align 8, !tbaa !37
  %39 = icmp slt i32 %35, %38
  br i1 %39, label %40, label %66

40:                                               ; preds = %34
  %41 = load ptr, ptr %3, align 8, !tbaa !41
  %42 = load ptr, ptr %3, align 8, !tbaa !41
  %43 = getelementptr inbounds nuw %struct.AVFilterLink, ptr %42, i32 0, i32 6
  %44 = load i32, ptr %43, align 8, !tbaa !77
  %45 = load ptr, ptr %3, align 8, !tbaa !41
  %46 = getelementptr inbounds nuw %struct.AVFilterLink, ptr %45, i32 0, i32 7
  %47 = load i32, ptr %46, align 4, !tbaa !78
  %48 = call ptr @ff_get_video_buffer(ptr noundef %41, i32 noundef %44, i32 noundef %47)
  %49 = load ptr, ptr %4, align 8, !tbaa !22
  %50 = getelementptr inbounds nuw %struct.TelecineContext, ptr %49, i32 0, i32 12
  %51 = load i32, ptr %6, align 4, !tbaa !24
  %52 = sext i32 %51 to i64
  %53 = getelementptr inbounds [5 x ptr], ptr %50, i64 0, i64 %52
  store ptr %48, ptr %53, align 8, !tbaa !43
  %54 = load ptr, ptr %4, align 8, !tbaa !22
  %55 = getelementptr inbounds nuw %struct.TelecineContext, ptr %54, i32 0, i32 12
  %56 = load i32, ptr %6, align 4, !tbaa !24
  %57 = sext i32 %56 to i64
  %58 = getelementptr inbounds [5 x ptr], ptr %55, i64 0, i64 %57
  %59 = load ptr, ptr %58, align 8, !tbaa !43
  %60 = icmp ne ptr %59, null
  br i1 %60, label %62, label %61

61:                                               ; preds = %40
  store i32 -12, ptr %2, align 4
  store i32 1, ptr %8, align 4
  br label %135

62:                                               ; preds = %40
  br label %63

63:                                               ; preds = %62
  %64 = load i32, ptr %6, align 4, !tbaa !24
  %65 = add nsw i32 %64, 1
  store i32 %65, ptr %6, align 4, !tbaa !24
  br label %34, !llvm.loop !79

66:                                               ; preds = %34
  %67 = load ptr, ptr %4, align 8, !tbaa !22
  %68 = getelementptr inbounds nuw %struct.TelecineContext, ptr %67, i32 0, i32 11
  %69 = getelementptr inbounds [4 x i32], ptr %68, i64 0, i64 0
  %70 = load ptr, ptr %3, align 8, !tbaa !41
  %71 = getelementptr inbounds nuw %struct.AVFilterLink, ptr %70, i32 0, i32 5
  %72 = load i32, ptr %71, align 4, !tbaa !74
  %73 = load ptr, ptr %3, align 8, !tbaa !41
  %74 = getelementptr inbounds nuw %struct.AVFilterLink, ptr %73, i32 0, i32 6
  %75 = load i32, ptr %74, align 8, !tbaa !77
  %76 = call i32 @av_image_fill_linesizes(ptr noundef %69, i32 noundef %72, i32 noundef %75)
  store i32 %76, ptr %7, align 4, !tbaa !24
  %77 = icmp slt i32 %76, 0
  br i1 %77, label %78, label %80

78:                                               ; preds = %66
  %79 = load i32, ptr %7, align 4, !tbaa !24
  store i32 %79, ptr %2, align 4
  store i32 1, ptr %8, align 4
  br label %135

80:                                               ; preds = %66
  %81 = load ptr, ptr %5, align 8, !tbaa !75
  %82 = getelementptr inbounds nuw %struct.AVPixFmtDescriptor, ptr %81, i32 0, i32 3
  %83 = load i8, ptr %82, align 2, !tbaa !80
  %84 = call i1 @llvm.is.constant.i8(i8 %83)
  br i1 %84, label %96, label %85

85:                                               ; preds = %80
  %86 = load ptr, ptr %3, align 8, !tbaa !41
  %87 = getelementptr inbounds nuw %struct.AVFilterLink, ptr %86, i32 0, i32 7
  %88 = load i32, ptr %87, align 4, !tbaa !78
  %89 = sub nsw i32 0, %88
  %90 = load ptr, ptr %5, align 8, !tbaa !75
  %91 = getelementptr inbounds nuw %struct.AVPixFmtDescriptor, ptr %90, i32 0, i32 3
  %92 = load i8, ptr %91, align 2, !tbaa !80
  %93 = zext i8 %92 to i32
  %94 = ashr i32 %89, %93
  %95 = sub nsw i32 0, %94
  br label %112

96:                                               ; preds = %80
  %97 = load ptr, ptr %3, align 8, !tbaa !41
  %98 = getelementptr inbounds nuw %struct.AVFilterLink, ptr %97, i32 0, i32 7
  %99 = load i32, ptr %98, align 4, !tbaa !78
  %100 = load ptr, ptr %5, align 8, !tbaa !75
  %101 = getelementptr inbounds nuw %struct.AVPixFmtDescriptor, ptr %100, i32 0, i32 3
  %102 = load i8, ptr %101, align 2, !tbaa !80
  %103 = zext i8 %102 to i32
  %104 = shl i32 1, %103
  %105 = add nsw i32 %99, %104
  %106 = sub nsw i32 %105, 1
  %107 = load ptr, ptr %5, align 8, !tbaa !75
  %108 = getelementptr inbounds nuw %struct.AVPixFmtDescriptor, ptr %107, i32 0, i32 3
  %109 = load i8, ptr %108, align 2, !tbaa !80
  %110 = zext i8 %109 to i32
  %111 = ashr i32 %106, %110
  br label %112

112:                                              ; preds = %96, %85
  %113 = phi i32 [ %95, %85 ], [ %111, %96 ]
  %114 = load ptr, ptr %4, align 8, !tbaa !22
  %115 = getelementptr inbounds nuw %struct.TelecineContext, ptr %114, i32 0, i32 10
  %116 = getelementptr inbounds [4 x i32], ptr %115, i64 0, i64 2
  store i32 %113, ptr %116, align 4, !tbaa !24
  %117 = load ptr, ptr %4, align 8, !tbaa !22
  %118 = getelementptr inbounds nuw %struct.TelecineContext, ptr %117, i32 0, i32 10
  %119 = getelementptr inbounds [4 x i32], ptr %118, i64 0, i64 1
  store i32 %113, ptr %119, align 4, !tbaa !24
  %120 = load ptr, ptr %3, align 8, !tbaa !41
  %121 = getelementptr inbounds nuw %struct.AVFilterLink, ptr %120, i32 0, i32 7
  %122 = load i32, ptr %121, align 4, !tbaa !78
  %123 = load ptr, ptr %4, align 8, !tbaa !22
  %124 = getelementptr inbounds nuw %struct.TelecineContext, ptr %123, i32 0, i32 10
  %125 = getelementptr inbounds [4 x i32], ptr %124, i64 0, i64 3
  store i32 %122, ptr %125, align 4, !tbaa !24
  %126 = load ptr, ptr %4, align 8, !tbaa !22
  %127 = getelementptr inbounds nuw %struct.TelecineContext, ptr %126, i32 0, i32 10
  %128 = getelementptr inbounds [4 x i32], ptr %127, i64 0, i64 0
  store i32 %122, ptr %128, align 4, !tbaa !24
  %129 = load ptr, ptr %3, align 8, !tbaa !41
  %130 = getelementptr inbounds nuw %struct.AVFilterLink, ptr %129, i32 0, i32 5
  %131 = load i32, ptr %130, align 4, !tbaa !74
  %132 = call i32 @av_pix_fmt_count_planes(i32 noundef %131)
  %133 = load ptr, ptr %4, align 8, !tbaa !22
  %134 = getelementptr inbounds nuw %struct.TelecineContext, ptr %133, i32 0, i32 9
  store i32 %132, ptr %134, align 8, !tbaa !61
  store i32 0, ptr %2, align 4
  store i32 1, ptr %8, align 4
  br label %135

135:                                              ; preds = %112, %78, %61, %32
  call void @llvm.lifetime.end.p0(i64 4, ptr %7) #11
  call void @llvm.lifetime.end.p0(i64 4, ptr %6) #11
  call void @llvm.lifetime.end.p0(i64 8, ptr %5) #11
  call void @llvm.lifetime.end.p0(i64 8, ptr %4) #11
  %136 = load i32, ptr %2, align 4
  ret i32 %136
}