; Function Attrs: nounwind uwtable
define internal range(i32 -2147483648, 1) i32 @config_input(ptr noundef %0) #1 {
  %2 = getelementptr inbounds nuw i8, ptr %0, i64 16
  %3 = load ptr, ptr %2, align 8, !tbaa !34
  %4 = getelementptr inbounds nuw i8, ptr %3, i64 72
  %5 = load ptr, ptr %4, align 8, !tbaa !4
  %6 = getelementptr inbounds nuw i8, ptr %0, i64 36
  %7 = load i32, ptr %6, align 4, !tbaa !67
  %8 = tail call ptr @av_pix_fmt_desc_get(i32 noundef %7) #5
  %9 = getelementptr inbounds nuw i8, ptr %0, i64 40
  %10 = load i32, ptr %9, align 8, !tbaa !68
  %11 = getelementptr inbounds nuw i8, ptr %0, i64 44
  %12 = load i32, ptr %11, align 4, !tbaa !69
  %13 = tail call ptr @ff_get_video_buffer(ptr noundef %0, i32 noundef %10, i32 noundef %12) #5
  %14 = getelementptr inbounds nuw i8, ptr %5, i64 144
  store ptr %13, ptr %14, align 8, !tbaa !56
  %.not = icmp eq ptr %13, null
  br i1 %.not, label %.loopexit, label %.preheader

.preheader:                                       ; preds = %1
  %15 = getelementptr inbounds nuw i8, ptr %5, i64 56
  %16 = load i32, ptr %15, align 8, !tbaa !31
  %17 = icmp sgt i32 %16, 0
  br i1 %17, label %.lr.ph, label %._crit_edge

.lr.ph:                                           ; preds = %.preheader
  %18 = getelementptr inbounds nuw i8, ptr %5, i64 104
  br label %23

19:                                               ; preds = %23
  %indvars.iv.next = add nuw nsw i64 %indvars.iv, 1
  %20 = load i32, ptr %15, align 8, !tbaa !31
  %21 = sext i32 %20 to i64
  %22 = icmp slt i64 %indvars.iv.next, %21
  br i1 %22, label %23, label %._crit_edge, !llvm.loop !70

23:                                               ; preds = %.lr.ph, %19
  %indvars.iv = phi i64 [ 0, %.lr.ph ], [ %indvars.iv.next, %19 ]
  %24 = load i32, ptr %9, align 8, !tbaa !68
  %25 = load i32, ptr %11, align 4, !tbaa !69
  %26 = tail call ptr @ff_get_video_buffer(ptr noundef nonnull %0, i32 noundef %24, i32 noundef %25) #5
  %27 = getelementptr inbounds nuw [5 x ptr], ptr %18, i64 0, i64 %indvars.iv
  store ptr %26, ptr %27, align 8, !tbaa !33
  %.not36 = icmp eq ptr %26, null
  br i1 %.not36, label %.loopexit, label %19

._crit_edge:                                      ; preds = %19, %.preheader
  %28 = getelementptr inbounds nuw i8, ptr %5, i64 84
  %29 = load i32, ptr %6, align 4, !tbaa !67
  %30 = load i32, ptr %9, align 8, !tbaa !68
  %31 = tail call i32 @av_image_fill_linesizes(ptr noundef nonnull %28, i32 noundef %29, i32 noundef %30) #5
  %32 = icmp slt i32 %31, 0
  br i1 %32, label %.loopexit, label %33

33:                                               ; preds = %._crit_edge
  %34 = load i32, ptr %11, align 4, !tbaa !69
  %35 = sub nsw i32 0, %34
  %36 = getelementptr inbounds nuw i8, ptr %8, i64 10
  %37 = load i8, ptr %36, align 2, !tbaa !71
  %38 = zext nneg i8 %37 to i32
  %39 = ashr i32 %35, %38
  %40 = sub nsw i32 0, %39
  %41 = getelementptr inbounds nuw i8, ptr %5, i64 68
  %42 = getelementptr inbounds nuw i8, ptr %5, i64 76
  store i32 %40, ptr %42, align 4, !tbaa !54
  %43 = getelementptr inbounds nuw i8, ptr %5, i64 72
  store i32 %40, ptr %43, align 4, !tbaa !54
  %44 = load i32, ptr %11, align 4, !tbaa !69
  %45 = getelementptr inbounds nuw i8, ptr %5, i64 80
  store i32 %44, ptr %45, align 4, !tbaa !54
  store i32 %44, ptr %41, align 4, !tbaa !54
  %46 = load i32, ptr %6, align 4, !tbaa !67
  %47 = tail call i32 @av_pix_fmt_count_planes(i32 noundef %46) #5
  %48 = getelementptr inbounds nuw i8, ptr %5, i64 64
  store i32 %47, ptr %48, align 8, !tbaa !52
  br label %.loopexit

.loopexit:                                        ; preds = %23, %._crit_edge, %1, %33
  %.0 = phi i32 [ 0, %33 ], [ -12, %1 ], [ %31, %._crit_edge ], [ -12, %23 ]
  ret i32 %.0
}